; Function Attrs: mustprogress uwtable
define hidden void @_ZN6casadi9print_vecERKNSt7__cxx1112basic_stringIcSt11char_traitsIcESaIcEEEPKdx(ptr noundef nonnull readonly align 8 captures(none) dereferenceable(32) %0, ptr noundef readonly captures(none) %1, i64 noundef %2) local_unnamed_addr #4 {
  %4 = tail call noundef nonnull align 8 dereferenceable(8) ptr @_ZN6casadi4uoutEv()
  %5 = load ptr, ptr %0, align 8, !tbaa !11
  %6 = getelementptr inbounds nuw i8, ptr %0, i64 8
  %7 = load i64, ptr %6, align 8, !tbaa !14
  %8 = tail call noundef nonnull align 8 dereferenceable(8) ptr @_ZSt16__ostream_insertIcSt11char_traitsIcEERSt13basic_ostreamIT_T0_ES6_PKS3_l(ptr noundef nonnull align 8 dereferenceable(8) %4, ptr noundef %5, i64 noundef %7)
  %9 = tail call noundef nonnull align 8 dereferenceable(8) ptr @_ZSt16__ostream_insertIcSt11char_traitsIcEERSt13basic_ostreamIT_T0_ES6_PKS3_l(ptr noundef nonnull align 8 dereferenceable(8) %8, ptr noundef nonnull @.str.7, i64 noundef 2)
  %10 = icmp sgt i64 %2, 0
  br i1 %10, label %.lr.ph, label %._crit_edge

._crit_edge:                                      ; preds = %.lr.ph, %3
  %11 = tail call noundef nonnull align 8 dereferenceable(8) ptr @_ZN6casadi4uoutEv()
  %12 = tail call noundef nonnull align 8 dereferenceable(8) ptr @_ZSt16__ostream_insertIcSt11char_traitsIcEERSt13basic_ostreamIT_T0_ES6_PKS3_l(ptr noundef nonnull align 8 dereferenceable(8) %11, ptr noundef nonnull @.str.9, i64 noundef 1)
  ret void

.lr.ph:                                           ; preds = %3, %.lr.ph
  %.05 = phi i64 [ %18, %.lr.ph ], [ 0, %3 ]
  %13 = tail call noundef nonnull align 8 dereferenceable(8) ptr @_ZN6casadi4uoutEv()
  %14 = tail call noundef nonnull align 8 dereferenceable(8) ptr @_ZSt16__ostream_insertIcSt11char_traitsIcEERSt13basic_ostreamIT_T0_ES6_PKS3_l(ptr noundef nonnull align 8 dereferenceable(8) %13, ptr noundef nonnull @.str.8, i64 noundef 1)
  %15 = getelementptr inbounds nuw double, ptr %1, i64 %.05
  %16 = load double, ptr %15, align 8, !tbaa !32
  %17 = tail call noundef nonnull align 8 dereferenceable(8) ptr @_ZNSo9_M_insertIdEERSoT_(ptr noundef nonnull align 8 dereferenceable(8) %13, double noundef %16)
  %18 = add nuw nsw i64 %.05, 1
  %exitcond.not = icmp eq i64 %18, %2
  br i1 %exitcond.not, label %._crit_edge, label %.lr.ph, !llvm.loop !34
}